target datalayout = "e-m:e-p270:32:32-p271:32:32-p272:64:64-i64:64-i128:128-f80:128-n8:16:32:64-S128"
target triple = "x86_64-pc-linux-gnu"

%"class.casadi::SXElem" = type { ptr }
%"class.casadi::SXNode" = type { ptr, i32, i32 }

; Function Attrs: mustprogress nounwind uwtable
define void @_ZN6casadi6SXElemD2Ev(ptr noundef nonnull align 8 dereferenceable(8) %0) unnamed_addr #4 align 2 {
  %2 = alloca ptr, align 8
  store ptr %0, ptr %2, align 8
  %3 = load ptr, ptr %2, align 8
  %4 = getelementptr inbounds %"class.casadi::SXElem", ptr %3, i32 0, i32 0
  %5 = load ptr, ptr %4, align 8
  %6 = getelementptr inbounds %"class.casadi::SXNode", ptr %5, i32 0, i32 2
  %7 = load i32, ptr %6, align 4
  %8 = add i32 %7, -1
  store i32 %8, ptr %6, align 4
  %9 = icmp eq i32 %8, 0
  br i1 %9, label %10, label %19

10:                                               ; preds = %1
  %11 = getelementptr inbounds %"class.casadi::SXElem", ptr %3, i32 0, i32 0
  %12 = load ptr, ptr %11, align 8
  %13 = icmp eq ptr %12, null
  br i1 %13, label %18, label %14

14:                                               ; preds = %10
  %15 = load ptr, ptr %12, align 8
  %16 = getelementptr inbounds ptr, ptr %15, i64 1
  %17 = load ptr, ptr %16, align 8
  call void %17(ptr noundef nonnull align 8 dereferenceable(16) %12) #3
  br label %18

18:                                               ; preds = %14, %10
  br label %19

19:                                               ; preds = %18, %1
  ret void
}