; Function Attrs: mustprogress nounwind uwtable
define void @_ZN6casadi6SXElemD2Ev(ptr nocapture noundef nonnull readonly align 8 dereferenceable(8) %0) unnamed_addr #3 align 2 {
  %2 = load ptr, ptr %0, align 8
  %3 = getelementptr inbounds i8, ptr %2, i64 12
  %4 = load i32, ptr %3, align 4
  %5 = add i32 %4, -1
  store i32 %5, ptr %3, align 4
  %6 = icmp eq i32 %5, 0
  br i1 %6, label %7, label %14

7:                                                ; preds = %1
  %8 = load ptr, ptr %0, align 8
  %9 = icmp eq ptr %8, null
  br i1 %9, label %14, label %10

10:                                               ; preds = %7
  %11 = load ptr, ptr %8, align 8
  %12 = getelementptr inbounds i8, ptr %11, i64 8
  %13 = load ptr, ptr %12, align 8
  tail call void %13(ptr noundef nonnull align 8 dereferenceable(16) %8) #25
  br label %14

14:                                               ; preds = %7, %10, %1
  ret void
}